target datalayout = "e-m:e-p270:32:32-p271:32:32-p272:64:64-i64:64-i128:128-f80:128-n8:16:32:64-S128"
target triple = "x86_64-pc-linux-gnu"

%struct.FunctionCallInfoBaseData = type { ptr, ptr, ptr, i32, i8, i16, [0 x %struct.NullableDatum] }
%struct.NullableDatum = type { i64, i8 }

@Mode = external global i32, align 4
@.str.1 = private unnamed_addr constant [10 x i8] c"regproc.c\00", align 1
@.str.4 = private unnamed_addr constant [2 x i8] c"-\00", align 1
@.str.32 = private unnamed_addr constant [52 x i8] c"regdictionary values must be OIDs in bootstrap mode\00", align 1
@__func__.regdictionaryin = private unnamed_addr constant [16 x i8] c"regdictionaryin\00", align 1
@.str.33 = private unnamed_addr constant [43 x i8] c"text search dictionary \22%s\22 does not exist\00", align 1
@.str.39 = private unnamed_addr constant [11 x i8] c"0123456789\00", align 1

; Function Attrs: inlinehint nounwind uwtable
define internal i32 @DatumGetObjectId(i64 noundef %0) #2 {
  %2 = alloca i64, align 8
  store i64 %0, ptr %2, align 8
  %3 = load i64, ptr %2, align 8
  %4 = trunc i64 %3 to i32
  ret i32 %4
}

; Function Attrs: nounwind uwtable
define internal zeroext i1 @parseNumericOid(ptr noundef %0, ptr noundef %1, ptr noundef %2) #0 {
  %4 = alloca i1, align 1
  %5 = alloca ptr, align 8
  %6 = alloca ptr, align 8
  %7 = alloca ptr, align 8
  %8 = alloca i64, align 8
  store ptr %0, ptr %5, align 8
  store ptr %1, ptr %6, align 8
  store ptr %2, ptr %7, align 8
  %9 = load ptr, ptr %5, align 8
  %10 = getelementptr inbounds i8, ptr %9, i64 0
  %11 = load i8, ptr %10, align 1
  %12 = sext i8 %11 to i32
  %13 = icmp sge i32 %12, 48
  br i1 %13, label %14, label %33

14:                                               ; preds = %3
  %15 = load ptr, ptr %5, align 8
  %16 = getelementptr inbounds i8, ptr %15, i64 0
  %17 = load i8, ptr %16, align 1
  %18 = sext i8 %17 to i32
  %19 = icmp sle i32 %18, 57
  br i1 %19, label %20, label %33

20:                                               ; preds = %14
  %21 = load ptr, ptr %5, align 8
  %22 = call i64 @strspn(ptr noundef %21, ptr noundef @.str.39) #10
  %23 = load ptr, ptr %5, align 8
  %24 = call i64 @strlen(ptr noundef %23) #10
  %25 = icmp eq i64 %22, %24
  br i1 %25, label %26, label %33

26:                                               ; preds = %20
  call void @llvm.lifetime.start.p0(i64 8, ptr %8) #8
  %27 = load ptr, ptr %5, align 8
  %28 = load ptr, ptr %7, align 8
  %29 = call zeroext i1 @DirectInputFunctionCallSafe(ptr noundef @oidin, ptr noundef %27, i32 noundef 0, i32 noundef -1, ptr noundef %28, ptr noundef %8)
  %30 = load i64, ptr %8, align 8
  %31 = call i32 @DatumGetObjectId(i64 noundef %30)
  %32 = load ptr, ptr %6, align 8
  store i32 %31, ptr %32, align 4
  store i1 true, ptr %4, align 1
  call void @llvm.lifetime.end.p0(i64 8, ptr %8) #8
  br label %35

33:                                               ; preds = %20, %14, %3
  %34 = load ptr, ptr %6, align 8
  store i32 0, ptr %34, align 4
  store i1 false, ptr %4, align 1
  br label %35

35:                                               ; preds = %33, %26
  %36 = load i1, ptr %4, align 1
  ret i1 %36
}

; Function Attrs: inlinehint nounwind uwtable
define internal ptr @DatumGetPointer(i64 noundef %0) #2 {
  %2 = alloca i64, align 8
  store i64 %0, ptr %2, align 8
  %3 = load i64, ptr %2, align 8
  %4 = inttoptr i64 %3 to ptr
  ret ptr %4
}

; Function Attrs: inlinehint nounwind uwtable
define internal i64 @ObjectIdGetDatum(i32 noundef %0) #2 {
  %2 = alloca i32, align 4
  store i32 %0, ptr %2, align 4
  %3 = load i32, ptr %2, align 4
  %4 = zext i32 %3 to i64
  ret i64 %4
}

; Function Attrs: nounwind uwtable
define internal zeroext i1 @parseDashOrOid(ptr noundef %0, ptr noundef %1, ptr noundef %2) #0 {
  %4 = alloca i1, align 1
  %5 = alloca ptr, align 8
  %6 = alloca ptr, align 8
  %7 = alloca ptr, align 8
  store ptr %0, ptr %5, align 8
  store ptr %1, ptr %6, align 8
  store ptr %2, ptr %7, align 8
  %8 = load ptr, ptr %5, align 8
  %9 = call i32 @strcmp(ptr noundef %8, ptr noundef @.str.4) #10
  %10 = icmp eq i32 %9, 0
  br i1 %10, label %11, label %13

11:                                               ; preds = %3
  %12 = load ptr, ptr %6, align 8
  store i32 0, ptr %12, align 4
  store i1 true, ptr %4, align 1
  br label %18

13:                                               ; preds = %3
  %14 = load ptr, ptr %5, align 8
  %15 = load ptr, ptr %6, align 8
  %16 = load ptr, ptr %7, align 8
  %17 = call zeroext i1 @parseNumericOid(ptr noundef %14, ptr noundef %15, ptr noundef %16)
  store i1 %17, ptr %4, align 1
  br label %18

18:                                               ; preds = %13, %11
  %19 = load i1, ptr %4, align 1
  ret i1 %19
}

; Function Attrs: inlinehint nounwind uwtable
define internal ptr @DatumGetCString(i64 noundef %0) #2 {
  %2 = alloca i64, align 8
  store i64 %0, ptr %2, align 8
  %3 = load i64, ptr %2, align 8
  %4 = call ptr @DatumGetPointer(i64 noundef %3)
  ret ptr %4
}

; Function Attrs: nounwind uwtable
define dso_local i64 @regdictionaryin(ptr noundef %0) #0 {
  %2 = alloca i64, align 8
  %3 = alloca ptr, align 8
  %4 = alloca ptr, align 8
  %5 = alloca ptr, align 8
  %6 = alloca i32, align 4
  %7 = alloca ptr, align 8
  %8 = alloca i32, align 4
  %9 = alloca ptr, align 8
  store ptr %0, ptr %3, align 8
  call void @llvm.lifetime.start.p0(i64 8, ptr %4) #8
  %10 = load ptr, ptr %3, align 8
  %11 = getelementptr inbounds nuw %struct.FunctionCallInfoBaseData, ptr %10, i32 0, i32 6
  %12 = getelementptr inbounds [0 x %struct.NullableDatum], ptr %11, i64 0, i64 0
  %13 = getelementptr inbounds nuw %struct.NullableDatum, ptr %12, i32 0, i32 0
  %14 = load i64, ptr %13, align 8
  %15 = call ptr @DatumGetCString(i64 noundef %14)
  store ptr %15, ptr %4, align 8
  call void @llvm.lifetime.start.p0(i64 8, ptr %5) #8
  %16 = load ptr, ptr %3, align 8
  %17 = getelementptr inbounds nuw %struct.FunctionCallInfoBaseData, ptr %16, i32 0, i32 1
  %18 = load ptr, ptr %17, align 8
  store ptr %18, ptr %5, align 8
  call void @llvm.lifetime.start.p0(i64 4, ptr %6) #8
  call void @llvm.lifetime.start.p0(i64 8, ptr %7) #8
  %19 = load ptr, ptr %4, align 8
  %20 = load ptr, ptr %5, align 8
  %21 = call zeroext i1 @parseDashOrOid(ptr noundef %19, ptr noundef %6, ptr noundef %20)
  br i1 %21, label %22, label %25

22:                                               ; preds = %1
  %23 = load i32, ptr %6, align 4
  %24 = call i64 @ObjectIdGetDatum(i32 noundef %23)
  store i64 %24, ptr %2, align 8
  store i32 1, ptr %8, align 4
  br label %76

25:                                               ; preds = %1
  %26 = load i32, ptr @Mode, align 4
  %27 = icmp eq i32 %26, 0
  br i1 %27, label %28, label %39

28:                                               ; preds = %25
  br label %29

29:                                               ; preds = %28
  br i1 true, label %30, label %32

30:                                               ; preds = %29
  %31 = call zeroext i1 @errstart_cold(i32 noundef 21, ptr noundef null) #9
  br i1 %31, label %34, label %36

32:                                               ; preds = %29
  %33 = call zeroext i1 @errstart(i32 noundef 21, ptr noundef null)
  br i1 %33, label %34, label %36

34:                                               ; preds = %32, %30
  %35 = call i32 (ptr, ...) @errmsg_internal(ptr noundef @.str.32)
  call void @errfinish(ptr noundef @.str.1, i32 noundef 1444, ptr noundef @__func__.regdictionaryin)
  br label %36

36:                                               ; preds = %34, %32, %30
  unreachable

37:                                               ; No predecessors!
  br label %38

38:                                               ; preds = %37
  br label %39

39:                                               ; preds = %38, %25
  %40 = load ptr, ptr %4, align 8
  %41 = load ptr, ptr %5, align 8
  %42 = call ptr @stringToQualifiedNameList(ptr noundef %40, ptr noundef %41)
  store ptr %42, ptr %7, align 8
  %43 = load ptr, ptr %7, align 8
  %44 = icmp eq ptr %43, null
  br i1 %44, label %45, label %51

45:                                               ; preds = %39
  br label %46

46:                                               ; preds = %45
  %47 = load ptr, ptr %3, align 8
  %48 = getelementptr inbounds nuw %struct.FunctionCallInfoBaseData, ptr %47, i32 0, i32 4
  store i8 1, ptr %48, align 4
  store i64 0, ptr %2, align 8
  store i32 1, ptr %8, align 4
  br label %76

49:                                               ; No predecessors!
  br label %50

50:                                               ; preds = %49
  br label %51

51:                                               ; preds = %50, %39
  %52 = load ptr, ptr %7, align 8
  %53 = call i32 @get_ts_dict_oid(ptr noundef %52, i1 noundef zeroext true)
  store i32 %53, ptr %6, align 4
  %54 = load i32, ptr %6, align 4
  %55 = icmp ne i32 %54, 0
  br i1 %55, label %73, label %56

56:                                               ; preds = %51
  br label %57

57:                                               ; preds = %56
  br label %58

58:                                               ; preds = %57
  call void @llvm.lifetime.start.p0(i64 8, ptr %9) #8
  %59 = load ptr, ptr %5, align 8
  store ptr %59, ptr %9, align 8
  %60 = load ptr, ptr %9, align 8
  %61 = call zeroext i1 @errsave_start(ptr noundef %60, ptr noundef null)
  br i1 %61, label %62, label %68

62:                                               ; preds = %58
  %63 = call i32 @errcode(i32 noundef 67137668)
  %64 = load ptr, ptr %7, align 8
  %65 = call ptr @NameListToString(ptr noundef %64)
  %66 = call i32 (ptr, ...) @errmsg(ptr noundef @.str.33, ptr noundef %65)
  %67 = load ptr, ptr %9, align 8
  call void @errsave_finish(ptr noundef %67, ptr noundef @.str.1, i32 noundef 1460, ptr noundef @__func__.regdictionaryin)
  br label %68

68:                                               ; preds = %62, %58
  call void @llvm.lifetime.end.p0(i64 8, ptr %9) #8
  br label %69

69:                                               ; preds = %68
  br label %70

70:                                               ; preds = %69
  store i64 0, ptr %2, align 8
  store i32 1, ptr %8, align 4
  br label %76

71:                                               ; No predecessors!
  br label %72

72:                                               ; preds = %71
  br label %73

73:                                               ; preds = %72, %51
  %74 = load i32, ptr %6, align 4
  %75 = call i64 @ObjectIdGetDatum(i32 noundef %74)
  store i64 %75, ptr %2, align 8
  store i32 1, ptr %8, align 4
  br label %76

76:                                               ; preds = %73, %70, %46, %22
  call void @llvm.lifetime.end.p0(i64 8, ptr %7) #8
  call void @llvm.lifetime.end.p0(i64 4, ptr %6) #8
  call void @llvm.lifetime.end.p0(i64 8, ptr %5) #8
  call void @llvm.lifetime.end.p0(i64 8, ptr %4) #8
  %77 = load i64, ptr %2, align 8
  ret i64 %77
}